target datalayout = "e-m:e-p270:32:32-p271:32:32-p272:64:64-i64:64-i128:128-f80:128-n8:16:32:64-S128"
target triple = "x86_64-pc-linux-gnu"

%"struct.c4::basic_substring.0" = type { ptr, i64 }
%"struct.c4::yml::Parser::LineContents" = type { %"struct.c4::basic_substring.0", %"struct.c4::basic_substring.0", %"struct.c4::basic_substring.0", i64 }

; Function Attrs: mustprogress nounwind uwtable
define linkonce_odr noundef i64 @_ZNK2c415basic_substringIKcE12first_not_ofEcm(ptr noundef nonnull align 8 dereferenceable(16) %0, i8 noundef signext %1, i64 noundef %2) #0 comdat align 2 {
  %4 = alloca i64, align 8
  %5 = alloca ptr, align 8
  %6 = alloca i8, align 1
  %7 = alloca i64, align 8
  %8 = alloca i64, align 8
  %9 = alloca i32, align 4
  store ptr %0, ptr %5, align 8, !tbaa !45
  store i8 %1, ptr %6, align 1, !tbaa !68
  store i64 %2, ptr %7, align 8, !tbaa !15
  %10 = load ptr, ptr %5, align 8
  call void @llvm.lifetime.start.p0(i64 8, ptr %8) #25
  %11 = load i64, ptr %7, align 8, !tbaa !15
  store i64 %11, ptr %8, align 8, !tbaa !15
  br label %12

12:                                               ; preds = %31, %3
  %13 = load i64, ptr %8, align 8, !tbaa !15
  %14 = getelementptr inbounds nuw %"struct.c4::basic_substring.0", ptr %10, i32 0, i32 1
  %15 = load i64, ptr %14, align 8, !tbaa !39
  %16 = icmp ult i64 %13, %15
  br i1 %16, label %18, label %17

17:                                               ; preds = %12
  store i32 2, ptr %9, align 4
  br label %34

18:                                               ; preds = %12
  %19 = getelementptr inbounds nuw %"struct.c4::basic_substring.0", ptr %10, i32 0, i32 0
  %20 = load ptr, ptr %19, align 8, !tbaa !37
  %21 = load i64, ptr %8, align 8, !tbaa !15
  %22 = getelementptr inbounds nuw i8, ptr %20, i64 %21
  %23 = load i8, ptr %22, align 1, !tbaa !68
  %24 = sext i8 %23 to i32
  %25 = load i8, ptr %6, align 1, !tbaa !68
  %26 = sext i8 %25 to i32
  %27 = icmp ne i32 %24, %26
  br i1 %27, label %28, label %30

28:                                               ; preds = %18
  %29 = load i64, ptr %8, align 8, !tbaa !15
  store i64 %29, ptr %4, align 8
  store i32 1, ptr %9, align 4
  br label %34

30:                                               ; preds = %18
  br label %31

31:                                               ; preds = %30
  %32 = load i64, ptr %8, align 8, !tbaa !15
  %33 = add i64 %32, 1
  store i64 %33, ptr %8, align 8, !tbaa !15
  br label %12, !llvm.loop !271

34:                                               ; preds = %28, %17
  call void @llvm.lifetime.end.p0(i64 8, ptr %8) #25
  %35 = load i32, ptr %9, align 4
  switch i32 %35, label %39 [
    i32 2, label %36
    i32 1, label %37
  ]

36:                                               ; preds = %34
  store i64 -1, ptr %4, align 8
  br label %37

37:                                               ; preds = %36, %34
  %38 = load i64, ptr %4, align 8
  ret i64 %38

39:                                               ; preds = %34
  unreachable
}

; Function Attrs: noinline noreturn nounwind uwtable
define linkonce_odr hidden void @__clang_call_terminate(ptr noundef %0) #20 comdat {
  %2 = call ptr @__cxa_begin_catch(ptr %0) #25
  call void @_ZSt9terminatev() #27
  unreachable
}

; Function Attrs: mustprogress nounwind uwtable
define linkonce_odr void @_ZN2c415basic_substringIKcEC2EPS1_m(ptr noundef nonnull align 8 dereferenceable(16) %0, ptr noundef %1, i64 noundef %2) unnamed_addr #0 comdat align 2 {
  %4 = alloca ptr, align 8
  %5 = alloca ptr, align 8
  %6 = alloca i64, align 8
  store ptr %0, ptr %4, align 8, !tbaa !45
  store ptr %1, ptr %5, align 8, !tbaa !20
  store i64 %2, ptr %6, align 8, !tbaa !15
  %7 = load ptr, ptr %4, align 8
  %8 = getelementptr inbounds nuw %"struct.c4::basic_substring.0", ptr %7, i32 0, i32 0
  %9 = load ptr, ptr %5, align 8, !tbaa !20
  store ptr %9, ptr %8, align 8, !tbaa !37
  %10 = getelementptr inbounds nuw %"struct.c4::basic_substring.0", ptr %7, i32 0, i32 1
  %11 = load i64, ptr %6, align 8, !tbaa !15
  store i64 %11, ptr %10, align 8, !tbaa !39
  ret void
}

; Function Attrs: mustprogress uwtable
define linkonce_odr void @_ZN2c43yml6Parser12LineContents5resetENS_15basic_substringIKcEES5_(ptr noundef nonnull align 8 dereferenceable(56) %0, ptr %1, i64 %2, ptr %3, i64 %4) #1 comdat align 2 {
  %6 = alloca %"struct.c4::basic_substring.0", align 8
  %7 = alloca %"struct.c4::basic_substring.0", align 8
  %8 = alloca ptr, align 8
  %9 = getelementptr inbounds nuw { ptr, i64 }, ptr %6, i32 0, i32 0
  store ptr %1, ptr %9, align 8
  %10 = getelementptr inbounds nuw { ptr, i64 }, ptr %6, i32 0, i32 1
  store i64 %2, ptr %10, align 8
  %11 = getelementptr inbounds nuw { ptr, i64 }, ptr %7, i32 0, i32 0
  store ptr %3, ptr %11, align 8
  %12 = getelementptr inbounds nuw { ptr, i64 }, ptr %7, i32 0, i32 1
  store i64 %4, ptr %12, align 8
  store ptr %0, ptr %8, align 8, !tbaa !288
  %13 = load ptr, ptr %8, align 8
  %14 = getelementptr inbounds nuw %"struct.c4::yml::Parser::LineContents", ptr %13, i32 0, i32 0
  call void @llvm.memcpy.p0.p0.i64(ptr align 8 %14, ptr align 8 %6, i64 16, i1 false), !tbaa.struct !69
  %15 = getelementptr inbounds nuw %"struct.c4::yml::Parser::LineContents", ptr %13, i32 0, i32 1
  call void @llvm.memcpy.p0.p0.i64(ptr align 8 %15, ptr align 8 %7, i64 16, i1 false), !tbaa.struct !69
  %16 = getelementptr inbounds nuw %"struct.c4::yml::Parser::LineContents", ptr %13, i32 0, i32 2
  call void @llvm.memcpy.p0.p0.i64(ptr align 8 %16, ptr align 8 %7, i64 16, i1 false), !tbaa.struct !69
  %17 = getelementptr inbounds nuw %"struct.c4::yml::Parser::LineContents", ptr %13, i32 0, i32 0
  %18 = call noundef i64 @_ZNK2c415basic_substringIKcE12first_not_ofEcm(ptr noundef nonnull align 8 dereferenceable(16) %17, i8 noundef signext 32, i64 noundef 0)
  %19 = getelementptr inbounds nuw %"struct.c4::yml::Parser::LineContents", ptr %13, i32 0, i32 3
  store i64 %18, ptr %19, align 8, !tbaa !300
  ret void
}

; Function Attrs: alwaysinline mustprogress nounwind willreturn memory(read) uwtable
define linkonce_odr { ptr, i64 } @_ZNK2c415basic_substringIKcE3subEmm(ptr noundef nonnull align 8 dereferenceable(16) %0, i64 noundef %1, i64 noundef %2) #4 comdat align 2 personality ptr @__gxx_personality_v0 {
  %4 = alloca %"struct.c4::basic_substring.0", align 8
  %5 = alloca ptr, align 8
  %6 = alloca i64, align 8
  %7 = alloca i64, align 8
  %8 = alloca i64, align 8
  store ptr %0, ptr %5, align 8, !tbaa !45
  store i64 %1, ptr %6, align 8, !tbaa !15
  store i64 %2, ptr %7, align 8, !tbaa !15
  %9 = load ptr, ptr %5, align 8
  call void @llvm.lifetime.start.p0(i64 8, ptr %8) #25
  %10 = load i64, ptr %7, align 8, !tbaa !15
  %11 = icmp ne i64 %10, -1
  br i1 %11, label %12, label %14

12:                                               ; preds = %3
  %13 = load i64, ptr %7, align 8, !tbaa !15
  br label %19

14:                                               ; preds = %3
  %15 = getelementptr inbounds nuw %"struct.c4::basic_substring.0", ptr %9, i32 0, i32 1
  %16 = load i64, ptr %15, align 8, !tbaa !39
  %17 = load i64, ptr %6, align 8, !tbaa !15
  %18 = sub i64 %16, %17
  br label %19

19:                                               ; preds = %14, %12
  %20 = phi i64 [ %13, %12 ], [ %18, %14 ]
  store i64 %20, ptr %8, align 8, !tbaa !15
  %21 = getelementptr inbounds nuw %"struct.c4::basic_substring.0", ptr %9, i32 0, i32 0
  %22 = load ptr, ptr %21, align 8, !tbaa !37
  %23 = load i64, ptr %6, align 8, !tbaa !15
  %24 = getelementptr inbounds nuw i8, ptr %22, i64 %23
  %25 = load i64, ptr %8, align 8, !tbaa !15
  invoke void @_ZN2c415basic_substringIKcEC2EPS1_m(ptr noundef nonnull align 8 dereferenceable(16) %4, ptr noundef %24, i64 noundef %25)
          to label %26 unwind label %28

26:                                               ; preds = %19
  call void @llvm.lifetime.end.p0(i64 8, ptr %8) #25
  %27 = load { ptr, i64 }, ptr %4, align 8
  ret { ptr, i64 } %27

28:                                               ; preds = %19
  %29 = landingpad { ptr, i32 }
          catch ptr null
  %30 = extractvalue { ptr, i32 } %29, 0
  call void @__clang_call_terminate(ptr %30) #27
  unreachable
}

; Function Attrs: alwaysinline mustprogress nounwind willreturn memory(read) uwtable
define linkonce_odr noundef ptr @_ZN2c415basic_substringIKcE3endEv(ptr noundef nonnull align 8 dereferenceable(16) %0) #4 comdat align 2 {
  %2 = alloca ptr, align 8
  store ptr %0, ptr %2, align 8, !tbaa !45
  %3 = load ptr, ptr %2, align 8
  %4 = getelementptr inbounds nuw %"struct.c4::basic_substring.0", ptr %3, i32 0, i32 0
  %5 = load ptr, ptr %4, align 8, !tbaa !37
  %6 = getelementptr inbounds nuw %"struct.c4::basic_substring.0", ptr %3, i32 0, i32 1
  %7 = load i64, ptr %6, align 8, !tbaa !39
  %8 = getelementptr inbounds nuw i8, ptr %5, i64 %7
  ret ptr %8
}

; Function Attrs: alwaysinline mustprogress nounwind willreturn memory(read) uwtable
define linkonce_odr noundef nonnull align 1 dereferenceable(1) ptr @_ZN2c415basic_substringIKcEixEm(ptr noundef nonnull align 8 dereferenceable(16) %0, i64 noundef %1) #4 comdat align 2 {
  %3 = alloca ptr, align 8
  %4 = alloca i64, align 8
  store ptr %0, ptr %3, align 8, !tbaa !45
  store i64 %1, ptr %4, align 8, !tbaa !15
  %5 = load ptr, ptr %3, align 8
  %6 = getelementptr inbounds nuw %"struct.c4::basic_substring.0", ptr %5, i32 0, i32 0
  %7 = load ptr, ptr %6, align 8, !tbaa !37
  %8 = load i64, ptr %4, align 8, !tbaa !15
  %9 = getelementptr inbounds nuw i8, ptr %7, i64 %8
  ret ptr %9
}

; Function Attrs: mustprogress uwtable
define void @_ZN2c43yml6Parser12LineContents20reset_with_next_lineENS_15basic_substringIKcEEm(ptr noundef nonnull align 8 dereferenceable(56) %0, ptr %1, i64 %2, i64 noundef %3) #1 align 2 {
  %5 = alloca %"struct.c4::basic_substring.0", align 8
  %6 = alloca ptr, align 8
  %7 = alloca i64, align 8
  %8 = alloca ptr, align 8
  %9 = alloca ptr, align 8
  %10 = alloca %"struct.c4::basic_substring.0", align 8
  %11 = alloca %"struct.c4::basic_substring.0", align 8
  %12 = alloca %"struct.c4::basic_substring.0", align 8
  %13 = alloca %"struct.c4::basic_substring.0", align 8
  %14 = getelementptr inbounds nuw { ptr, i64 }, ptr %5, i32 0, i32 0
  store ptr %1, ptr %14, align 8
  %15 = getelementptr inbounds nuw { ptr, i64 }, ptr %5, i32 0, i32 1
  store i64 %2, ptr %15, align 8
  store ptr %0, ptr %6, align 8, !tbaa !288
  store i64 %3, ptr %7, align 8, !tbaa !15
  %16 = load ptr, ptr %6, align 8
  call void @llvm.lifetime.start.p0(i64 8, ptr %8) #25
  %17 = load i64, ptr %7, align 8, !tbaa !15
  %18 = call noundef nonnull align 1 dereferenceable(1) ptr @_ZN2c415basic_substringIKcEixEm(ptr noundef nonnull align 8 dereferenceable(16) %5, i64 noundef %17) #26
  store ptr %18, ptr %8, align 8, !tbaa !20
  call void @llvm.lifetime.start.p0(i64 8, ptr %9) #25
  %19 = load ptr, ptr %8, align 8, !tbaa !20
  store ptr %19, ptr %9, align 8, !tbaa !20
  br label %20

20:                                               ; preds = %38, %4
  %21 = load ptr, ptr %9, align 8, !tbaa !20
  %22 = call noundef ptr @_ZN2c415basic_substringIKcE3endEv(ptr noundef nonnull align 8 dereferenceable(16) %5) #26
  %23 = icmp ult ptr %21, %22
  br i1 %23, label %24, label %36

24:                                               ; preds = %20
  %25 = load ptr, ptr %9, align 8, !tbaa !20
  %26 = load i8, ptr %25, align 1, !tbaa !68
  %27 = sext i8 %26 to i32
  %28 = icmp ne i32 %27, 10
  br i1 %28, label %29, label %34

29:                                               ; preds = %24
  %30 = load ptr, ptr %9, align 8, !tbaa !20
  %31 = load i8, ptr %30, align 1, !tbaa !68
  %32 = sext i8 %31 to i32
  %33 = icmp ne i32 %32, 13
  br label %34

34:                                               ; preds = %29, %24
  %35 = phi i1 [ false, %24 ], [ %33, %29 ]
  br label %36

36:                                               ; preds = %34, %20
  %37 = phi i1 [ false, %20 ], [ %35, %34 ]
  br i1 %37, label %38, label %41

38:                                               ; preds = %36
  %39 = load ptr, ptr %9, align 8, !tbaa !20
  %40 = getelementptr inbounds nuw i8, ptr %39, i32 1
  store ptr %40, ptr %9, align 8, !tbaa !20
  br label %20, !llvm.loop !314

41:                                               ; preds = %36
  call void @llvm.lifetime.start.p0(i64 16, ptr %10) #25
  %42 = load i64, ptr %7, align 8, !tbaa !15
  %43 = load ptr, ptr %9, align 8, !tbaa !20
  %44 = load ptr, ptr %8, align 8, !tbaa !20
  %45 = ptrtoint ptr %43 to i64
  %46 = ptrtoint ptr %44 to i64
  %47 = sub i64 %45, %46
  %48 = call { ptr, i64 } @_ZNK2c415basic_substringIKcE3subEmm(ptr noundef nonnull align 8 dereferenceable(16) %5, i64 noundef %42, i64 noundef %47) #26
  %49 = getelementptr inbounds nuw { ptr, i64 }, ptr %10, i32 0, i32 0
  %50 = extractvalue { ptr, i64 } %48, 0
  store ptr %50, ptr %49, align 8
  %51 = getelementptr inbounds nuw { ptr, i64 }, ptr %10, i32 0, i32 1
  %52 = extractvalue { ptr, i64 } %48, 1
  store i64 %52, ptr %51, align 8
  %53 = load ptr, ptr %9, align 8, !tbaa !20
  %54 = call noundef ptr @_ZN2c415basic_substringIKcE3endEv(ptr noundef nonnull align 8 dereferenceable(16) %5) #26
  %55 = icmp ne ptr %53, %54
  br i1 %55, label %56, label %64

56:                                               ; preds = %41
  %57 = load ptr, ptr %9, align 8, !tbaa !20
  %58 = load i8, ptr %57, align 1, !tbaa !68
  %59 = sext i8 %58 to i32
  %60 = icmp eq i32 %59, 13
  br i1 %60, label %61, label %64

61:                                               ; preds = %56
  %62 = load ptr, ptr %9, align 8, !tbaa !20
  %63 = getelementptr inbounds nuw i8, ptr %62, i32 1
  store ptr %63, ptr %9, align 8, !tbaa !20
  br label %64

64:                                               ; preds = %61, %56, %41
  %65 = load ptr, ptr %9, align 8, !tbaa !20
  %66 = call noundef ptr @_ZN2c415basic_substringIKcE3endEv(ptr noundef nonnull align 8 dereferenceable(16) %5) #26
  %67 = icmp ne ptr %65, %66
  br i1 %67, label %68, label %76

68:                                               ; preds = %64
  %69 = load ptr, ptr %9, align 8, !tbaa !20
  %70 = load i8, ptr %69, align 1, !tbaa !68
  %71 = sext i8 %70 to i32
  %72 = icmp eq i32 %71, 10
  br i1 %72, label %73, label %76

73:                                               ; preds = %68
  %74 = load ptr, ptr %9, align 8, !tbaa !20
  %75 = getelementptr inbounds nuw i8, ptr %74, i32 1
  store ptr %75, ptr %9, align 8, !tbaa !20
  br label %76

76:                                               ; preds = %73, %68, %64
  call void @llvm.lifetime.start.p0(i64 16, ptr %11) #25
  %77 = load i64, ptr %7, align 8, !tbaa !15
  %78 = load ptr, ptr %9, align 8, !tbaa !20
  %79 = load ptr, ptr %8, align 8, !tbaa !20
  %80 = ptrtoint ptr %78 to i64
  %81 = ptrtoint ptr %79 to i64
  %82 = sub i64 %80, %81
  %83 = call { ptr, i64 } @_ZNK2c415basic_substringIKcE3subEmm(ptr noundef nonnull align 8 dereferenceable(16) %5, i64 noundef %77, i64 noundef %82) #26
  %84 = getelementptr inbounds nuw { ptr, i64 }, ptr %11, i32 0, i32 0
  %85 = extractvalue { ptr, i64 } %83, 0
  store ptr %85, ptr %84, align 8
  %86 = getelementptr inbounds nuw { ptr, i64 }, ptr %11, i32 0, i32 1
  %87 = extractvalue { ptr, i64 } %83, 1
  store i64 %87, ptr %86, align 8
  call void @llvm.memcpy.p0.p0.i64(ptr align 8 %12, ptr align 8 %11, i64 16, i1 false), !tbaa.struct !69
  call void @llvm.memcpy.p0.p0.i64(ptr align 8 %13, ptr align 8 %10, i64 16, i1 false), !tbaa.struct !69
  %88 = getelementptr inbounds nuw { ptr, i64 }, ptr %12, i32 0, i32 0
  %89 = load ptr, ptr %88, align 8
  %90 = getelementptr inbounds nuw { ptr, i64 }, ptr %12, i32 0, i32 1
  %91 = load i64, ptr %90, align 8
  %92 = getelementptr inbounds nuw { ptr, i64 }, ptr %13, i32 0, i32 0
  %93 = load ptr, ptr %92, align 8
  %94 = getelementptr inbounds nuw { ptr, i64 }, ptr %13, i32 0, i32 1
  %95 = load i64, ptr %94, align 8
  call void @_ZN2c43yml6Parser12LineContents5resetENS_15basic_substringIKcEES5_(ptr noundef nonnull align 8 dereferenceable(56) %16, ptr %89, i64 %91, ptr %93, i64 %95)
  call void @llvm.lifetime.end.p0(i64 16, ptr %11) #25
  call void @llvm.lifetime.end.p0(i64 16, ptr %10) #25
  call void @llvm.lifetime.end.p0(i64 8, ptr %9) #25
  call void @llvm.lifetime.end.p0(i64 8, ptr %8) #25
  ret void
}