; Function Attrs: mustprogress nofree norecurse nosync nounwind memory(argmem: readwrite) uwtable
define void @_ZN2c43yml6Parser12LineContents20reset_with_next_lineENS_15basic_substringIKcEEm(ptr noundef nonnull writeonly align 8 captures(none) dereferenceable(56) %0, ptr %1, i64 %2, i64 noundef %3) local_unnamed_addr #5 align 2 personality ptr @__gxx_personality_v0 {
  %5 = getelementptr inbounds nuw i8, ptr %1, i64 %3
  %6 = getelementptr inbounds nuw i8, ptr %1, i64 %2
  %7 = icmp samesign ult i64 %3, %2
  br i1 %7, label %.lr.ph, label %.critedge

.lr.ph:                                           ; preds = %4, %9
  %.046 = phi ptr [ %10, %9 ], [ %5, %4 ]
  %8 = load i8, ptr %.046, align 1, !tbaa !45
  switch i8 %8, label %9 [
    i8 10, label %.critedge
    i8 13, label %.critedge
  ]

9:                                                ; preds = %.lr.ph
  %10 = getelementptr inbounds nuw i8, ptr %.046, i64 1
  %11 = icmp ult ptr %10, %6
  br i1 %11, label %.lr.ph, label %.critedge, !llvm.loop !289

.critedge:                                        ; preds = %9, %.lr.ph, %.lr.ph, %4
  %.0.lcssa = phi ptr [ %5, %4 ], [ %.046, %.lr.ph ], [ %.046, %.lr.ph ], [ %10, %9 ]
  %12 = ptrtoint ptr %.0.lcssa to i64
  %13 = ptrtoint ptr %5 to i64
  %14 = sub i64 %12, %13
  %.not.i = icmp eq i64 %14, -1
  %15 = sub i64 %2, %3
  %16 = select i1 %.not.i, i64 %15, i64 %14
  %.not25 = icmp eq ptr %.0.lcssa, %6
  br i1 %.not25, label %.thread, label %17

17:                                               ; preds = %.critedge
  %18 = load i8, ptr %.0.lcssa, align 1, !tbaa !45
  %19 = icmp eq i8 %18, 13
  %spec.select.idx = zext i1 %19 to i64
  %spec.select = getelementptr inbounds nuw i8, ptr %.0.lcssa, i64 %spec.select.idx
  %.not26 = icmp eq ptr %spec.select, %6
  br i1 %.not26, label %.thread, label %20

20:                                               ; preds = %17
  %21 = load i8, ptr %spec.select, align 1, !tbaa !45
  %22 = icmp eq i8 %21, 10
  %spec.select27.idx = zext i1 %22 to i64
  %spec.select27 = getelementptr inbounds nuw i8, ptr %spec.select, i64 %spec.select27.idx
  br label %.thread

.thread:                                          ; preds = %.critedge, %20, %17
  %.2 = phi ptr [ %6, %17 ], [ %spec.select27, %20 ], [ %6, %.critedge ]
  %23 = ptrtoint ptr %.2 to i64
  %24 = sub i64 %23, %13
  %.not.i28 = icmp eq i64 %24, -1
  %25 = select i1 %.not.i28, i64 %15, i64 %24
  store ptr %5, ptr %0, align 8, !tbaa !67
  %.sroa.2.0..sroa_idx.i = getelementptr inbounds nuw i8, ptr %0, i64 8
  store i64 %25, ptr %.sroa.2.0..sroa_idx.i, align 8, !tbaa !68
  %26 = getelementptr inbounds nuw i8, ptr %0, i64 16
  store ptr %5, ptr %26, align 8, !tbaa !67
  %.sroa.3.0..sroa_idx.i = getelementptr inbounds nuw i8, ptr %0, i64 24
  store i64 %16, ptr %.sroa.3.0..sroa_idx.i, align 8, !tbaa !68
  %27 = getelementptr inbounds nuw i8, ptr %0, i64 32
  store ptr %5, ptr %27, align 8, !tbaa !67
  %.sroa.3.0..sroa_idx2.i = getelementptr inbounds nuw i8, ptr %0, i64 40
  store i64 %16, ptr %.sroa.3.0..sroa_idx2.i, align 8, !tbaa !68
  %.not1011.i.not.i = icmp eq i64 %25, 0
  br i1 %.not1011.i.not.i, label %_ZN2c43yml6Parser12LineContents5resetENS_15basic_substringIKcEES5_.exit, label %.lr.ph.i.i

.lr.ph.i.i:                                       ; preds = %.thread, %30
  %.0812.i.i = phi i64 [ %31, %30 ], [ 0, %.thread ]
  %28 = getelementptr inbounds nuw i8, ptr %5, i64 %.0812.i.i
  %29 = load i8, ptr %28, align 1, !tbaa !45
  %.not.i.i = icmp eq i8 %29, 32
  br i1 %.not.i.i, label %30, label %_ZN2c43yml6Parser12LineContents5resetENS_15basic_substringIKcEES5_.exit

30:                                               ; preds = %.lr.ph.i.i
  %31 = add nuw i64 %.0812.i.i, 1
  %exitcond.not.i.i = icmp eq i64 %31, %25
  br i1 %exitcond.not.i.i, label %_ZN2c43yml6Parser12LineContents5resetENS_15basic_substringIKcEES5_.exit, label %.lr.ph.i.i, !llvm.loop !206

_ZN2c43yml6Parser12LineContents5resetENS_15basic_substringIKcEES5_.exit: ; preds = %.lr.ph.i.i, %30, %.thread
  %spec.select.i.i = phi i64 [ -1, %.thread ], [ %.0812.i.i, %.lr.ph.i.i ], [ -1, %30 ]
  %32 = getelementptr inbounds nuw i8, ptr %0, i64 48
  store i64 %spec.select.i.i, ptr %32, align 8, !tbaa !290
  ret void
}